target datalayout = "e-m:e-p270:32:32-p271:32:32-p272:64:64-i64:64-i128:128-f80:128-n8:16:32:64-S128"
target triple = "x86_64-pc-linux-gnu"

%struct.AVFilterContext = type { ptr, ptr, ptr, ptr, ptr, i32, ptr, ptr, i32, ptr, ptr, i32, i32, ptr, ptr, ptr, ptr, i32, ptr, i32, i32 }
%struct.TrimContext = type { ptr, i64, i64, i64, i64, i64, i64, i64, i64, i64, i64, i64, i64, i64, i64, i32, ptr }
%struct.AVRational = type { i32, i32 }
%struct.AVFilterLink = type { ptr, ptr, ptr, ptr, i32, i32, i32, i32, %struct.AVRational, i32, i32, i32, %struct.AVChannelLayout, %struct.AVRational, ptr, i32, %struct.AVFilterFormatsConfig, %struct.AVFilterFormatsConfig }
%struct.AVChannelLayout = type { i32, i32, %union.anon.1, ptr }
%union.anon.1 = type { i64 }
%struct.AVFilterFormatsConfig = type { ptr, ptr, ptr, ptr, ptr }
%struct.AVFrame = type { [8 x ptr], [8 x i32], ptr, i32, i32, i32, i32, i32, %struct.AVRational, i64, i64, %struct.AVRational, i32, ptr, i32, i32, [8 x ptr], ptr, i32, ptr, i32, i32, i32, i32, i32, i32, i32, i64, ptr, i32, ptr, ptr, i64, i64, i64, i64, ptr, %struct.AVChannelLayout, i64 }

; Function Attrs: inlinehint nounwind uwtable
define internal void @ff_outlink_set_status(ptr noundef %0, i32 noundef %1, i64 noundef %2) #6 {
  %4 = alloca ptr, align 8
  %5 = alloca i32, align 4
  %6 = alloca i64, align 8
  store ptr %0, ptr %4, align 8, !tbaa !28
  store i32 %1, ptr %5, align 4, !tbaa !31
  store i64 %2, ptr %6, align 8, !tbaa !36
  %7 = load ptr, ptr %4, align 8, !tbaa !28
  %8 = load i32, ptr %5, align 4, !tbaa !31
  %9 = load i64, ptr %6, align 8, !tbaa !36
  call void @ff_avfilter_link_set_in_status(ptr noundef %7, i32 noundef %8, i64 noundef %9)
  ret void
}

; Function Attrs: nounwind uwtable
define internal i32 @trim_filter_frame(ptr noundef %0, ptr noundef %1) #1 {
  %3 = alloca i32, align 4
  %4 = alloca ptr, align 8
  %5 = alloca ptr, align 8
  %6 = alloca ptr, align 8
  %7 = alloca ptr, align 8
  %8 = alloca i32, align 4
  %9 = alloca i32, align 4
  store ptr %0, ptr %4, align 8, !tbaa !28
  store ptr %1, ptr %5, align 8, !tbaa !33
  call void @llvm.lifetime.start.p0(i64 8, ptr %6) #7
  %10 = load ptr, ptr %4, align 8, !tbaa !28
  %11 = getelementptr inbounds nuw %struct.AVFilterLink, ptr %10, i32 0, i32 2
  %12 = load ptr, ptr %11, align 8, !tbaa !37
  store ptr %12, ptr %6, align 8, !tbaa !4
  call void @llvm.lifetime.start.p0(i64 8, ptr %7) #7
  %13 = load ptr, ptr %6, align 8, !tbaa !4
  %14 = getelementptr inbounds nuw %struct.AVFilterContext, ptr %13, i32 0, i32 9
  %15 = load ptr, ptr %14, align 8, !tbaa !9
  store ptr %15, ptr %7, align 8, !tbaa !22
  call void @llvm.lifetime.start.p0(i64 4, ptr %8) #7
  %16 = load ptr, ptr %7, align 8, !tbaa !22
  %17 = getelementptr inbounds nuw %struct.TrimContext, ptr %16, i32 0, i32 15
  %18 = load i32, ptr %17, align 8, !tbaa !32
  %19 = icmp ne i32 %18, 0
  br i1 %19, label %20, label %21

20:                                               ; preds = %2
  call void @av_frame_free(ptr noundef %5)
  store i32 0, ptr %3, align 4
  store i32 1, ptr %9, align 4
  br label %196

21:                                               ; preds = %2
  %22 = load ptr, ptr %7, align 8, !tbaa !22
  %23 = getelementptr inbounds nuw %struct.TrimContext, ptr %22, i32 0, i32 4
  %24 = load i64, ptr %23, align 8, !tbaa !56
  %25 = icmp sge i64 %24, 0
  br i1 %25, label %31, label %26

26:                                               ; preds = %21
  %27 = load ptr, ptr %7, align 8, !tbaa !22
  %28 = getelementptr inbounds nuw %struct.TrimContext, ptr %27, i32 0, i32 6
  %29 = load i64, ptr %28, align 8, !tbaa !51
  %30 = icmp ne i64 %29, -9223372036854775808
  br i1 %30, label %31, label %69

31:                                               ; preds = %26, %21
  store i32 1, ptr %8, align 4, !tbaa !31
  %32 = load ptr, ptr %7, align 8, !tbaa !22
  %33 = getelementptr inbounds nuw %struct.TrimContext, ptr %32, i32 0, i32 4
  %34 = load i64, ptr %33, align 8, !tbaa !56
  %35 = icmp sge i64 %34, 0
  br i1 %35, label %36, label %45

36:                                               ; preds = %31
  %37 = load ptr, ptr %7, align 8, !tbaa !22
  %38 = getelementptr inbounds nuw %struct.TrimContext, ptr %37, i32 0, i32 10
  %39 = load i64, ptr %38, align 8, !tbaa !57
  %40 = load ptr, ptr %7, align 8, !tbaa !22
  %41 = getelementptr inbounds nuw %struct.TrimContext, ptr %40, i32 0, i32 4
  %42 = load i64, ptr %41, align 8, !tbaa !56
  %43 = icmp sge i64 %39, %42
  br i1 %43, label %44, label %45

44:                                               ; preds = %36
  store i32 0, ptr %8, align 4, !tbaa !31
  br label %45

45:                                               ; preds = %44, %36, %31
  %46 = load ptr, ptr %7, align 8, !tbaa !22
  %47 = getelementptr inbounds nuw %struct.TrimContext, ptr %46, i32 0, i32 6
  %48 = load i64, ptr %47, align 8, !tbaa !51
  %49 = icmp ne i64 %48, -9223372036854775808
  br i1 %49, label %50, label %64

50:                                               ; preds = %45
  %51 = load ptr, ptr %5, align 8, !tbaa !33
  %52 = getelementptr inbounds nuw %struct.AVFrame, ptr %51, i32 0, i32 9
  %53 = load i64, ptr %52, align 8, !tbaa !58
  %54 = icmp ne i64 %53, -9223372036854775808
  br i1 %54, label %55, label %64

55:                                               ; preds = %50
  %56 = load ptr, ptr %5, align 8, !tbaa !33
  %57 = getelementptr inbounds nuw %struct.AVFrame, ptr %56, i32 0, i32 9
  %58 = load i64, ptr %57, align 8, !tbaa !58
  %59 = load ptr, ptr %7, align 8, !tbaa !22
  %60 = getelementptr inbounds nuw %struct.TrimContext, ptr %59, i32 0, i32 6
  %61 = load i64, ptr %60, align 8, !tbaa !51
  %62 = icmp sge i64 %58, %61
  br i1 %62, label %63, label %64

63:                                               ; preds = %55
  store i32 0, ptr %8, align 4, !tbaa !31
  br label %64

64:                                               ; preds = %63, %55, %50, %45
  %65 = load i32, ptr %8, align 4, !tbaa !31
  %66 = icmp ne i32 %65, 0
  br i1 %66, label %67, label %68

67:                                               ; preds = %64
  br label %184

68:                                               ; preds = %64
  br label %69

69:                                               ; preds = %68, %26
  %70 = load ptr, ptr %7, align 8, !tbaa !22
  %71 = getelementptr inbounds nuw %struct.TrimContext, ptr %70, i32 0, i32 12
  %72 = load i64, ptr %71, align 8, !tbaa !24
  %73 = icmp eq i64 %72, -9223372036854775808
  br i1 %73, label %74, label %85

74:                                               ; preds = %69
  %75 = load ptr, ptr %5, align 8, !tbaa !33
  %76 = getelementptr inbounds nuw %struct.AVFrame, ptr %75, i32 0, i32 9
  %77 = load i64, ptr %76, align 8, !tbaa !58
  %78 = icmp ne i64 %77, -9223372036854775808
  br i1 %78, label %79, label %85

79:                                               ; preds = %74
  %80 = load ptr, ptr %5, align 8, !tbaa !33
  %81 = getelementptr inbounds nuw %struct.AVFrame, ptr %80, i32 0, i32 9
  %82 = load i64, ptr %81, align 8, !tbaa !58
  %83 = load ptr, ptr %7, align 8, !tbaa !22
  %84 = getelementptr inbounds nuw %struct.TrimContext, ptr %83, i32 0, i32 12
  store i64 %82, ptr %84, align 8, !tbaa !24
  br label %85

85:                                               ; preds = %79, %74, %69
  %86 = load ptr, ptr %7, align 8, !tbaa !22
  %87 = getelementptr inbounds nuw %struct.TrimContext, ptr %86, i32 0, i32 5
  %88 = load i64, ptr %87, align 8, !tbaa !63
  %89 = icmp ne i64 %88, 9223372036854775807
  br i1 %89, label %100, label %90

90:                                               ; preds = %85
  %91 = load ptr, ptr %7, align 8, !tbaa !22
  %92 = getelementptr inbounds nuw %struct.TrimContext, ptr %91, i32 0, i32 7
  %93 = load i64, ptr %92, align 8, !tbaa !53
  %94 = icmp ne i64 %93, -9223372036854775808
  br i1 %94, label %100, label %95

95:                                               ; preds = %90
  %96 = load ptr, ptr %7, align 8, !tbaa !22
  %97 = getelementptr inbounds nuw %struct.TrimContext, ptr %96, i32 0, i32 13
  %98 = load i64, ptr %97, align 8, !tbaa !55
  %99 = icmp ne i64 %98, 0
  br i1 %99, label %100, label %172

100:                                              ; preds = %95, %90, %85
  store i32 1, ptr %8, align 4, !tbaa !31
  %101 = load ptr, ptr %7, align 8, !tbaa !22
  %102 = getelementptr inbounds nuw %struct.TrimContext, ptr %101, i32 0, i32 5
  %103 = load i64, ptr %102, align 8, !tbaa !63
  %104 = icmp ne i64 %103, 9223372036854775807
  br i1 %104, label %105, label %114

105:                                              ; preds = %100
  %106 = load ptr, ptr %7, align 8, !tbaa !22
  %107 = getelementptr inbounds nuw %struct.TrimContext, ptr %106, i32 0, i32 10
  %108 = load i64, ptr %107, align 8, !tbaa !57
  %109 = load ptr, ptr %7, align 8, !tbaa !22
  %110 = getelementptr inbounds nuw %struct.TrimContext, ptr %109, i32 0, i32 5
  %111 = load i64, ptr %110, align 8, !tbaa !63
  %112 = icmp slt i64 %108, %111
  br i1 %112, label %113, label %114

113:                                              ; preds = %105
  store i32 0, ptr %8, align 4, !tbaa !31
  br label %114

114:                                              ; preds = %113, %105, %100
  %115 = load ptr, ptr %7, align 8, !tbaa !22
  %116 = getelementptr inbounds nuw %struct.TrimContext, ptr %115, i32 0, i32 7
  %117 = load i64, ptr %116, align 8, !tbaa !53
  %118 = icmp ne i64 %117, -9223372036854775808
  br i1 %118, label %119, label %133

119:                                              ; preds = %114
  %120 = load ptr, ptr %5, align 8, !tbaa !33
  %121 = getelementptr inbounds nuw %struct.AVFrame, ptr %120, i32 0, i32 9
  %122 = load i64, ptr %121, align 8, !tbaa !58
  %123 = icmp ne i64 %122, -9223372036854775808
  br i1 %123, label %124, label %133

124:                                              ; preds = %119
  %125 = load ptr, ptr %5, align 8, !tbaa !33
  %126 = getelementptr inbounds nuw %struct.AVFrame, ptr %125, i32 0, i32 9
  %127 = load i64, ptr %126, align 8, !tbaa !58
  %128 = load ptr, ptr %7, align 8, !tbaa !22
  %129 = getelementptr inbounds nuw %struct.TrimContext, ptr %128, i32 0, i32 7
  %130 = load i64, ptr %129, align 8, !tbaa !53
  %131 = icmp slt i64 %127, %130
  br i1 %131, label %132, label %133

132:                                              ; preds = %124
  store i32 0, ptr %8, align 4, !tbaa !31
  br label %133

133:                                              ; preds = %132, %124, %119, %114
  %134 = load ptr, ptr %7, align 8, !tbaa !22
  %135 = getelementptr inbounds nuw %struct.TrimContext, ptr %134, i32 0, i32 13
  %136 = load i64, ptr %135, align 8, !tbaa !55
  %137 = icmp ne i64 %136, 0
  br i1 %137, label %138, label %156

138:                                              ; preds = %133
  %139 = load ptr, ptr %5, align 8, !tbaa !33
  %140 = getelementptr inbounds nuw %struct.AVFrame, ptr %139, i32 0, i32 9
  %141 = load i64, ptr %140, align 8, !tbaa !58
  %142 = icmp ne i64 %141, -9223372036854775808
  br i1 %142, label %143, label %156

143:                                              ; preds = %138
  %144 = load ptr, ptr %5, align 8, !tbaa !33
  %145 = getelementptr inbounds nuw %struct.AVFrame, ptr %144, i32 0, i32 9
  %146 = load i64, ptr %145, align 8, !tbaa !58
  %147 = load ptr, ptr %7, align 8, !tbaa !22
  %148 = getelementptr inbounds nuw %struct.TrimContext, ptr %147, i32 0, i32 12
  %149 = load i64, ptr %148, align 8, !tbaa !24
  %150 = sub nsw i64 %146, %149
  %151 = load ptr, ptr %7, align 8, !tbaa !22
  %152 = getelementptr inbounds nuw %struct.TrimContext, ptr %151, i32 0, i32 13
  %153 = load i64, ptr %152, align 8, !tbaa !55
  %154 = icmp slt i64 %150, %153
  br i1 %154, label %155, label %156

155:                                              ; preds = %143
  store i32 0, ptr %8, align 4, !tbaa !31
  br label %156

156:                                              ; preds = %155, %143, %138, %133
  %157 = load i32, ptr %8, align 4, !tbaa !31
  %158 = icmp ne i32 %157, 0
  br i1 %158, label %159, label %171

159:                                              ; preds = %156
  %160 = load ptr, ptr %7, align 8, !tbaa !22
  %161 = getelementptr inbounds nuw %struct.TrimContext, ptr %160, i32 0, i32 15
  store i32 1, ptr %161, align 8, !tbaa !32
  %162 = load ptr, ptr %4, align 8, !tbaa !28
  call void @ff_inlink_set_status(ptr noundef %162, i32 noundef -541478725)
  %163 = load ptr, ptr %6, align 8, !tbaa !4
  %164 = getelementptr inbounds nuw %struct.AVFilterContext, ptr %163, i32 0, i32 7
  %165 = load ptr, ptr %164, align 8, !tbaa !30
  %166 = getelementptr inbounds ptr, ptr %165, i64 0
  %167 = load ptr, ptr %166, align 8, !tbaa !28
  %168 = load ptr, ptr %5, align 8, !tbaa !33
  %169 = getelementptr inbounds nuw %struct.AVFrame, ptr %168, i32 0, i32 9
  %170 = load i64, ptr %169, align 8, !tbaa !58
  call void @ff_outlink_set_status(ptr noundef %167, i32 noundef -541478725, i64 noundef %170)
  br label %184

171:                                              ; preds = %156
  br label %172

172:                                              ; preds = %171, %95
  %173 = load ptr, ptr %7, align 8, !tbaa !22
  %174 = getelementptr inbounds nuw %struct.TrimContext, ptr %173, i32 0, i32 10
  %175 = load i64, ptr %174, align 8, !tbaa !57
  %176 = add nsw i64 %175, 1
  store i64 %176, ptr %174, align 8, !tbaa !57
  %177 = load ptr, ptr %6, align 8, !tbaa !4
  %178 = getelementptr inbounds nuw %struct.AVFilterContext, ptr %177, i32 0, i32 7
  %179 = load ptr, ptr %178, align 8, !tbaa !30
  %180 = getelementptr inbounds ptr, ptr %179, i64 0
  %181 = load ptr, ptr %180, align 8, !tbaa !28
  %182 = load ptr, ptr %5, align 8, !tbaa !33
  %183 = call i32 @ff_filter_frame(ptr noundef %181, ptr noundef %182)
  store i32 %183, ptr %3, align 4
  store i32 1, ptr %9, align 4
  br label %196

184:                                              ; preds = %159, %67
  %185 = load ptr, ptr %7, align 8, !tbaa !22
  %186 = getelementptr inbounds nuw %struct.TrimContext, ptr %185, i32 0, i32 15
  %187 = load i32, ptr %186, align 8, !tbaa !32
  %188 = icmp ne i32 %187, 0
  br i1 %188, label %191, label %189

189:                                              ; preds = %184
  %190 = load ptr, ptr %6, align 8, !tbaa !4
  call void @ff_filter_set_ready(ptr noundef %190, i32 noundef 100)
  br label %191

191:                                              ; preds = %189, %184
  %192 = load ptr, ptr %7, align 8, !tbaa !22
  %193 = getelementptr inbounds nuw %struct.TrimContext, ptr %192, i32 0, i32 10
  %194 = load i64, ptr %193, align 8, !tbaa !57
  %195 = add nsw i64 %194, 1
  store i64 %195, ptr %193, align 8, !tbaa !57
  call void @av_frame_free(ptr noundef %5)
  store i32 0, ptr %3, align 4
  store i32 1, ptr %9, align 4
  br label %196

196:                                              ; preds = %191, %172, %20
  call void @llvm.lifetime.end.p0(i64 4, ptr %8) #7
  call void @llvm.lifetime.end.p0(i64 8, ptr %7) #7
  call void @llvm.lifetime.end.p0(i64 8, ptr %6) #7
  %197 = load i32, ptr %3, align 4
  ret i32 %197
}