; Function Attrs: nounwind uwtable
define internal i32 @trim_filter_frame(ptr noundef %0, ptr noundef %1) #1 {
  %3 = alloca ptr, align 8
  store ptr %1, ptr %3, align 8, !tbaa !28
  %4 = getelementptr inbounds nuw i8, ptr %0, i64 16
  %5 = load ptr, ptr %4, align 8, !tbaa !33
  %6 = getelementptr inbounds nuw i8, ptr %5, i64 72
  %7 = load ptr, ptr %6, align 8, !tbaa !4
  %8 = getelementptr inbounds nuw i8, ptr %7, i64 120
  %9 = load i32, ptr %8, align 8, !tbaa !27
  %.not = icmp eq i32 %9, 0
  br i1 %.not, label %11, label %10

10:                                               ; preds = %2
  call void @av_frame_free(ptr noundef nonnull %3) #7
  br label %75

11:                                               ; preds = %2
  %12 = getelementptr inbounds nuw i8, ptr %7, i64 32
  %13 = load i64, ptr %12, align 8, !tbaa !49
  %14 = icmp sgt i64 %13, -1
  br i1 %14, label %18, label %15

15:                                               ; preds = %11
  %16 = getelementptr inbounds nuw i8, ptr %7, i64 48
  %17 = load i64, ptr %16, align 8, !tbaa !44
  %.not43 = icmp eq i64 %17, -9223372036854775808
  br i1 %.not43, label %.thread65, label %.thread

18:                                               ; preds = %11
  %19 = getelementptr inbounds nuw i8, ptr %7, i64 80
  %20 = load i64, ptr %19, align 8, !tbaa !50
  %.not44 = icmp sge i64 %20, %13
  %.phi.trans.insert = getelementptr inbounds nuw i8, ptr %7, i64 48
  %.pre = load i64, ptr %.phi.trans.insert, align 8, !tbaa !44
  %.not45 = icmp eq i64 %.pre, -9223372036854775808
  br i1 %.not45, label %select.unfold, label %.thread

.thread:                                          ; preds = %15, %18
  %.079 = phi i1 [ %.not44, %18 ], [ false, %15 ]
  %21 = phi i64 [ %.pre, %18 ], [ %17, %15 ]
  %22 = getelementptr inbounds nuw i8, ptr %1, i64 136
  %23 = load i64, ptr %22, align 8, !tbaa !51
  %.not47 = icmp sge i64 %23, %21
  %or.cond = select i1 %.not47, i1 true, i1 %.079
  br i1 %or.cond, label %.thread65, label %.thread86

select.unfold:                                    ; preds = %18
  br i1 %.not44, label %.thread65, label %.thread86

.thread65:                                        ; preds = %.thread, %select.unfold, %15
  %24 = getelementptr inbounds nuw i8, ptr %7, i64 96
  %25 = load i64, ptr %24, align 8, !tbaa !20
  %26 = icmp eq i64 %25, -9223372036854775808
  br i1 %26, label %27, label %31

27:                                               ; preds = %.thread65
  %28 = getelementptr inbounds nuw i8, ptr %1, i64 136
  %29 = load i64, ptr %28, align 8, !tbaa !51
  %.not49 = icmp eq i64 %29, -9223372036854775808
  br i1 %.not49, label %31, label %30

30:                                               ; preds = %27
  store i64 %29, ptr %24, align 8, !tbaa !20
  br label %31

31:                                               ; preds = %30, %27, %.thread65
  %32 = phi i64 [ %29, %30 ], [ -9223372036854775808, %27 ], [ %25, %.thread65 ]
  %33 = getelementptr inbounds nuw i8, ptr %7, i64 40
  %34 = load i64, ptr %33, align 8, !tbaa !56
  %.not50 = icmp eq i64 %34, 9223372036854775807
  br i1 %.not50, label %35, label %.thread68

35:                                               ; preds = %31
  %36 = getelementptr inbounds nuw i8, ptr %7, i64 56
  %37 = load i64, ptr %36, align 8, !tbaa !46
  %.not51 = icmp eq i64 %37, -9223372036854775808
  br i1 %.not51, label %38, label %.thread68.thread82

38:                                               ; preds = %35
  %39 = getelementptr inbounds nuw i8, ptr %7, i64 104
  %40 = load i64, ptr %39, align 8, !tbaa !48
  %.not52 = icmp eq i64 %40, 0
  br i1 %.not52, label %.thread70, label %.thread68.thread

.thread68:                                        ; preds = %31
  %41 = getelementptr inbounds nuw i8, ptr %7, i64 80
  %42 = load i64, ptr %41, align 8, !tbaa !50
  %43 = icmp sge i64 %42, %34
  %spec.select60 = zext i1 %43 to i32
  %.phi.trans.insert74 = getelementptr inbounds nuw i8, ptr %7, i64 56
  %.pre75 = load i64, ptr %.phi.trans.insert74, align 8, !tbaa !46
  %.not54 = icmp eq i64 %.pre75, -9223372036854775808
  br i1 %.not54, label %.thread68.thread, label %.thread68.thread82

.thread68.thread82:                               ; preds = %35, %.thread68
  %.285 = phi i32 [ %spec.select60, %.thread68 ], [ 1, %35 ]
  %44 = phi i64 [ %.pre75, %.thread68 ], [ %37, %35 ]
  %45 = getelementptr inbounds nuw i8, ptr %1, i64 136
  %46 = load i64, ptr %45, align 8, !tbaa !51
  %.not55 = icmp ne i64 %46, -9223372036854775808
  %47 = icmp slt i64 %46, %44
  %or.cond61 = and i1 %.not55, %47
  %spec.select64 = select i1 %or.cond61, i32 0, i32 %.285
  br label %.thread68.thread

.thread68.thread:                                 ; preds = %38, %.thread68.thread82, %.thread68
  %.3 = phi i32 [ %spec.select60, %.thread68 ], [ %spec.select64, %.thread68.thread82 ], [ 1, %38 ]
  %48 = getelementptr inbounds nuw i8, ptr %7, i64 104
  %49 = load i64, ptr %48, align 8, !tbaa !48
  %.not56 = icmp eq i64 %49, 0
  br i1 %.not56, label %56, label %50

50:                                               ; preds = %.thread68.thread
  %51 = getelementptr inbounds nuw i8, ptr %1, i64 136
  %52 = load i64, ptr %51, align 8, !tbaa !51
  %.not57 = icmp eq i64 %52, -9223372036854775808
  br i1 %.not57, label %56, label %53

53:                                               ; preds = %50
  %54 = sub nsw i64 %52, %32
  %55 = icmp slt i64 %54, %49
  %.not58 = icmp eq i32 %.3, 0
  %or.cond73 = select i1 %55, i1 true, i1 %.not58
  br i1 %or.cond73, label %.thread70, label %64

56:                                               ; preds = %50, %.thread68.thread
  %.not58.old = icmp eq i32 %.3, 0
  br i1 %.not58.old, label %.thread70, label %64

.thread70:                                        ; preds = %53, %56, %38
  %57 = getelementptr inbounds nuw i8, ptr %7, i64 80
  %58 = load i64, ptr %57, align 8, !tbaa !50
  %59 = add nsw i64 %58, 1
  store i64 %59, ptr %57, align 8, !tbaa !50
  %60 = getelementptr inbounds nuw i8, ptr %5, i64 56
  %61 = load ptr, ptr %60, align 8, !tbaa !26
  %62 = load ptr, ptr %61, align 8, !tbaa !24
  %63 = tail call i32 @ff_filter_frame(ptr noundef %62, ptr noundef %1) #7
  br label %75

64:                                               ; preds = %56, %53
  store i32 1, ptr %8, align 8, !tbaa !27
  tail call void @ff_inlink_set_status(ptr noundef nonnull %0, i32 noundef -541478725) #7
  %65 = getelementptr inbounds nuw i8, ptr %5, i64 56
  %66 = load ptr, ptr %65, align 8, !tbaa !26
  %67 = load ptr, ptr %66, align 8, !tbaa !24
  %68 = getelementptr inbounds nuw i8, ptr %1, i64 136
  %69 = load i64, ptr %68, align 8, !tbaa !51
  tail call void @ff_avfilter_link_set_in_status(ptr noundef %67, i32 noundef -541478725, i64 noundef %69) #7
  %.pre76 = load i32, ptr %8, align 8, !tbaa !27
  %70 = icmp eq i32 %.pre76, 0
  br i1 %70, label %.thread86, label %71

.thread86:                                        ; preds = %select.unfold, %.thread, %64
  tail call void @ff_filter_set_ready(ptr noundef nonnull %5, i32 noundef 100) #7
  br label %71

71:                                               ; preds = %.thread86, %64
  %72 = getelementptr inbounds nuw i8, ptr %7, i64 80
  %73 = load i64, ptr %72, align 8, !tbaa !50
  %74 = add nsw i64 %73, 1
  store i64 %74, ptr %72, align 8, !tbaa !50
  call void @av_frame_free(ptr noundef nonnull %3) #7
  br label %75

75:                                               ; preds = %71, %.thread70, %10
  %.033 = phi i32 [ 0, %10 ], [ 0, %71 ], [ %63, %.thread70 ]
  ret i32 %.033
}